; Function Attrs: mustprogress uwtable
define hidden noundef i64 @_ZNK4cvc58internal8Sequence4findERKS1_m(ptr noundef nonnull readonly align 8 captures(none) dereferenceable(32) %0, ptr noundef nonnull readonly align 8 captures(none) dereferenceable(32) %1, i64 noundef %2) local_unnamed_addr #3 align 2 {
  %4 = getelementptr inbounds nuw i8, ptr %0, i64 8
  %5 = getelementptr inbounds nuw i8, ptr %0, i64 16
  %6 = load ptr, ptr %5, align 8, !tbaa !13
  %7 = load ptr, ptr %4, align 8, !tbaa !16
  %8 = ptrtoint ptr %6 to i64
  %9 = ptrtoint ptr %7 to i64
  %10 = sub i64 %8, %9
  %11 = ashr exact i64 %10, 3
  %12 = getelementptr inbounds nuw i8, ptr %1, i64 8
  %13 = getelementptr inbounds nuw i8, ptr %1, i64 16
  %14 = load ptr, ptr %13, align 8, !tbaa !13
  %15 = load ptr, ptr %12, align 8, !tbaa !16
  %16 = ptrtoint ptr %14 to i64
  %17 = ptrtoint ptr %15 to i64
  %18 = sub i64 %16, %17
  %19 = ashr exact i64 %18, 3
  %20 = add i64 %19, %2
  %21 = icmp ult i64 %11, %20
  br i1 %21, label %36, label %22

22:                                               ; preds = %3
  %23 = icmp eq ptr %15, %14
  br i1 %23, label %36, label %24

24:                                               ; preds = %22
  %25 = icmp eq ptr %7, %6
  br i1 %25, label %36, label %26

26:                                               ; preds = %24
  %27 = getelementptr inbounds %"class.cvc5::internal::NodeTemplate", ptr %7, i64 %2
  %28 = tail call ptr @_ZSt8__searchIN9__gnu_cxx17__normal_iteratorIPKN4cvc58internal12NodeTemplateILb1EEESt6vectorIS5_SaIS5_EEEESB_NS0_5__ops19_Iter_equal_to_iterEET_SE_SE_T0_SF_T1_(ptr %27, ptr %6, ptr %15, ptr %14)
  %29 = load ptr, ptr %5, align 8, !tbaa !18
  %.not = icmp eq ptr %28, %29
  br i1 %.not, label %36, label %30

30:                                               ; preds = %26
  %31 = load ptr, ptr %4, align 8, !tbaa !18
  %32 = ptrtoint ptr %28 to i64
  %33 = ptrtoint ptr %31 to i64
  %34 = sub i64 %32, %33
  %35 = ashr exact i64 %34, 3
  br label %36

36:                                               ; preds = %30, %26, %24, %22, %3
  %.0 = phi i64 [ -1, %3 ], [ %2, %22 ], [ -1, %24 ], [ %35, %30 ], [ -1, %26 ]
  ret i64 %.0
}